target datalayout = "e-m:e-p270:32:32-p271:32:32-p272:64:64-i64:64-i128:128-f80:128-n8:16:32:64-S128"
target triple = "x86_64-unknown-linux-gnu"

%"class.icu_75::MaybeStackArray" = type <{ ptr, i32, i8, [40 x i8], [3 x i8] }>
%"class.icu_75::MeasureUnit" = type <{ %"class.icu_75::UObject", ptr, i16, i8, [5 x i8] }>
%"class.icu_75::UObject" = type { ptr }
%"class.icu_75::MeasureUnitImpl" = type { i32, %"class.icu_75::MaybeStackVector", %"class.icu_75::CharString" }
%"class.icu_75::MaybeStackVector" = type { %"class.icu_75::MemoryPool" }
%"class.icu_75::MemoryPool" = type { i32, %"class.icu_75::MaybeStackArray.0" }
%"class.icu_75::MaybeStackArray.0" = type { ptr, i32, i8, [8 x ptr] }
%"class.icu_75::CharString" = type { %"class.icu_75::MaybeStackArray", i32, [4 x i8] }
%"class.icu_75::StringPiece" = type <{ ptr, i32, [4 x i8] }>

@_ZTVN6icu_757UObjectE = external unnamed_addr constant { [5 x ptr] }, align 8

; Function Attrs: noreturn nounwind uwtable
define linkonce_odr hidden void @__clang_call_terminate(ptr noundef %0) #2 comdat {
  %2 = call ptr @__cxa_begin_catch(ptr %0) #8
  call void @_ZSt9terminatev() #10
  unreachable
}

; Function Attrs: mustprogress nounwind uwtable
define linkonce_odr void @_ZN6icu_7515MaybeStackArrayIPNS_14SingleUnitImplELi8EE17resetToStackArrayEv(ptr noundef nonnull align 8 dereferenceable(80) %this) #0 comdat align 2 {
entry:
  %this.addr = alloca ptr, align 8
  store ptr %this, ptr %this.addr, align 8
  %this1 = load ptr, ptr %this.addr, align 8
  %stackArray = getelementptr inbounds %"class.icu_75::MaybeStackArray.0", ptr %this1, i32 0, i32 3
  %arraydecay = getelementptr inbounds [8 x ptr], ptr %stackArray, i64 0, i64 0
  %ptr = getelementptr inbounds %"class.icu_75::MaybeStackArray.0", ptr %this1, i32 0, i32 0
  store ptr %arraydecay, ptr %ptr, align 8
  %capacity = getelementptr inbounds %"class.icu_75::MaybeStackArray.0", ptr %this1, i32 0, i32 1
  store i32 8, ptr %capacity, align 8
  %needToRelease = getelementptr inbounds %"class.icu_75::MaybeStackArray.0", ptr %this1, i32 0, i32 2
  store i8 0, ptr %needToRelease, align 4
  ret void
}

; Function Attrs: mustprogress nounwind uwtable
define linkonce_odr void @_ZN6icu_7515MaybeStackArrayIPNS_14SingleUnitImplELi8EEC2EOS3_(ptr noundef nonnull align 8 dereferenceable(80) %this, ptr noundef nonnull align 8 dereferenceable(80) %src) unnamed_addr #0 comdat align 2 personality ptr @__gxx_personality_v0 {
entry:
  %this.addr = alloca ptr, align 8
  %src.addr = alloca ptr, align 8
  store ptr %this, ptr %this.addr, align 8
  store ptr %src, ptr %src.addr, align 8
  %this1 = load ptr, ptr %this.addr, align 8
  %ptr = getelementptr inbounds %"class.icu_75::MaybeStackArray.0", ptr %this1, i32 0, i32 0
  %0 = load ptr, ptr %src.addr, align 8
  %ptr2 = getelementptr inbounds %"class.icu_75::MaybeStackArray.0", ptr %0, i32 0, i32 0
  %1 = load ptr, ptr %ptr2, align 8
  store ptr %1, ptr %ptr, align 8
  %capacity = getelementptr inbounds %"class.icu_75::MaybeStackArray.0", ptr %this1, i32 0, i32 1
  %2 = load ptr, ptr %src.addr, align 8
  %capacity3 = getelementptr inbounds %"class.icu_75::MaybeStackArray.0", ptr %2, i32 0, i32 1
  %3 = load i32, ptr %capacity3, align 8
  store i32 %3, ptr %capacity, align 8
  %needToRelease = getelementptr inbounds %"class.icu_75::MaybeStackArray.0", ptr %this1, i32 0, i32 2
  %4 = load ptr, ptr %src.addr, align 8
  %needToRelease4 = getelementptr inbounds %"class.icu_75::MaybeStackArray.0", ptr %4, i32 0, i32 2
  %5 = load i8, ptr %needToRelease4, align 4
  store i8 %5, ptr %needToRelease, align 4
  %6 = load ptr, ptr %src.addr, align 8
  %ptr5 = getelementptr inbounds %"class.icu_75::MaybeStackArray.0", ptr %6, i32 0, i32 0
  %7 = load ptr, ptr %ptr5, align 8
  %8 = load ptr, ptr %src.addr, align 8
  %stackArray = getelementptr inbounds %"class.icu_75::MaybeStackArray.0", ptr %8, i32 0, i32 3
  %arraydecay = getelementptr inbounds [8 x ptr], ptr %stackArray, i64 0, i64 0
  %cmp = icmp eq ptr %7, %arraydecay
  br i1 %cmp, label %if.then, label %if.else

if.then:                                          ; preds = %entry
  %stackArray6 = getelementptr inbounds %"class.icu_75::MaybeStackArray.0", ptr %this1, i32 0, i32 3
  %arraydecay7 = getelementptr inbounds [8 x ptr], ptr %stackArray6, i64 0, i64 0
  %ptr8 = getelementptr inbounds %"class.icu_75::MaybeStackArray.0", ptr %this1, i32 0, i32 0
  store ptr %arraydecay7, ptr %ptr8, align 8
  br label %do.body

do.body:                                          ; preds = %if.then
  %stackArray9 = getelementptr inbounds %"class.icu_75::MaybeStackArray.0", ptr %this1, i32 0, i32 3
  %arraydecay10 = getelementptr inbounds [8 x ptr], ptr %stackArray9, i64 0, i64 0
  %9 = load ptr, ptr %src.addr, align 8
  %stackArray11 = getelementptr inbounds %"class.icu_75::MaybeStackArray.0", ptr %9, i32 0, i32 3
  %arraydecay12 = getelementptr inbounds [8 x ptr], ptr %stackArray11, i64 0, i64 0
  %10 = load ptr, ptr %src.addr, align 8
  %capacity13 = getelementptr inbounds %"class.icu_75::MaybeStackArray.0", ptr %10, i32 0, i32 1
  %11 = load i32, ptr %capacity13, align 8
  %conv = sext i32 %11 to i64
  %mul = mul i64 8, %conv
  call void @llvm.memcpy.p0.p0.i64(ptr align 8 %arraydecay10, ptr align 8 %arraydecay12, i64 %mul, i1 false)
  br label %do.cond

do.cond:                                          ; preds = %do.body
  br label %do.end

do.end:                                           ; preds = %do.cond
  br label %if.end

if.else:                                          ; preds = %entry
  %12 = load ptr, ptr %src.addr, align 8
  invoke void @_ZN6icu_7515MaybeStackArrayIPNS_14SingleUnitImplELi8EE17resetToStackArrayEv(ptr noundef nonnull align 8 dereferenceable(80) %12)
          to label %invoke.cont unwind label %terminate.lpad

invoke.cont:                                      ; preds = %if.else
  br label %if.end

if.end:                                           ; preds = %invoke.cont, %do.end
  ret void

terminate.lpad:                                   ; preds = %if.else
  %13 = landingpad { ptr, i32 }
          catch ptr null
  %14 = extractvalue { ptr, i32 } %13, 0
  call void @__clang_call_terminate(ptr %14) #10
  unreachable
}

; Function Attrs: mustprogress nounwind uwtable
define linkonce_odr void @_ZN6icu_7510MemoryPoolINS_14SingleUnitImplELi8EEC2EOS2_(ptr noundef nonnull align 8 dereferenceable(88) %this, ptr noundef nonnull align 8 dereferenceable(88) %other) unnamed_addr #0 comdat align 2 {
entry:
  %this.addr = alloca ptr, align 8
  %other.addr = alloca ptr, align 8
  store ptr %this, ptr %this.addr, align 8
  store ptr %other, ptr %other.addr, align 8
  %this1 = load ptr, ptr %this.addr, align 8
  %fCount = getelementptr inbounds %"class.icu_75::MemoryPool", ptr %this1, i32 0, i32 0
  %0 = load ptr, ptr %other.addr, align 8
  %fCount2 = getelementptr inbounds %"class.icu_75::MemoryPool", ptr %0, i32 0, i32 0
  %1 = load i32, ptr %fCount2, align 8
  store i32 %1, ptr %fCount, align 8
  %fPool = getelementptr inbounds %"class.icu_75::MemoryPool", ptr %this1, i32 0, i32 1
  %2 = load ptr, ptr %other.addr, align 8
  %fPool3 = getelementptr inbounds %"class.icu_75::MemoryPool", ptr %2, i32 0, i32 1
  call void @_ZN6icu_7515MaybeStackArrayIPNS_14SingleUnitImplELi8EEC2EOS3_(ptr noundef nonnull align 8 dereferenceable(80) %fPool, ptr noundef nonnull align 8 dereferenceable(80) %fPool3) #8
  %3 = load ptr, ptr %other.addr, align 8
  %fCount4 = getelementptr inbounds %"class.icu_75::MemoryPool", ptr %3, i32 0, i32 0
  store i32 0, ptr %fCount4, align 8
  ret void
}

; Function Attrs: mustprogress nounwind uwtable
define linkonce_odr void @_ZN6icu_7516MaybeStackVectorINS_14SingleUnitImplELi8EEC2EOS2_(ptr noundef nonnull align 8 dereferenceable(88) %this, ptr noundef nonnull align 8 dereferenceable(88) %0) unnamed_addr #0 comdat align 2 {
entry:
  %this.addr = alloca ptr, align 8
  %.addr = alloca ptr, align 8
  store ptr %this, ptr %this.addr, align 8
  store ptr %0, ptr %.addr, align 8
  %this1 = load ptr, ptr %this.addr, align 8
  %1 = load ptr, ptr %.addr, align 8
  call void @_ZN6icu_7510MemoryPoolINS_14SingleUnitImplELi8EEC2EOS2_(ptr noundef nonnull align 8 dereferenceable(88) %this1, ptr noundef nonnull align 8 dereferenceable(88) %1) #8
  ret void
}

; Function Attrs: mustprogress nounwind uwtable
define linkonce_odr void @_ZN6icu_7511StringPieceC2EPKci(ptr noundef nonnull align 8 dereferenceable(12) %this, ptr noundef %offset, i32 noundef %len) unnamed_addr #0 comdat align 2 {
entry:
  %this.addr = alloca ptr, align 8
  %offset.addr = alloca ptr, align 8
  %len.addr = alloca i32, align 4
  store ptr %this, ptr %this.addr, align 8
  store ptr %offset, ptr %offset.addr, align 8
  store i32 %len, ptr %len.addr, align 4
  %this1 = load ptr, ptr %this.addr, align 8
  %ptr_ = getelementptr inbounds %"class.icu_75::StringPiece", ptr %this1, i32 0, i32 0
  %0 = load ptr, ptr %offset.addr, align 8
  store ptr %0, ptr %ptr_, align 8
  %length_ = getelementptr inbounds %"class.icu_75::StringPiece", ptr %this1, i32 0, i32 1
  %1 = load i32, ptr %len.addr, align 4
  store i32 %1, ptr %length_, align 8
  ret void
}

; Function Attrs: mustprogress nounwind uwtable
define weak_odr noundef ptr @_ZNK6icu_7515MaybeStackArrayIcLi40EE8getAliasEv(ptr noundef nonnull align 8 dereferenceable(53) %this) #0 comdat align 2 {
entry:
  %this.addr = alloca ptr, align 8
  store ptr %this, ptr %this.addr, align 8
  %this1 = load ptr, ptr %this.addr, align 8
  %ptr = getelementptr inbounds %"class.icu_75::MaybeStackArray", ptr %this1, i32 0, i32 0
  %0 = load ptr, ptr %ptr, align 8
  ret ptr %0
}

; Function Attrs: mustprogress nounwind uwtable
define linkonce_odr void @_ZN6icu_7515MeasureUnitImplC2EOS0_(ptr noundef nonnull align 8 dereferenceable(160) %this, ptr noundef nonnull align 8 dereferenceable(160) %other) unnamed_addr #0 comdat align 2 {
entry:
  %this.addr = alloca ptr, align 8
  %other.addr = alloca ptr, align 8
  store ptr %this, ptr %this.addr, align 8
  store ptr %other, ptr %other.addr, align 8
  %this1 = load ptr, ptr %this.addr, align 8
  %complexity = getelementptr inbounds %"class.icu_75::MeasureUnitImpl", ptr %this1, i32 0, i32 0
  %0 = load ptr, ptr %other.addr, align 8
  %complexity2 = getelementptr inbounds %"class.icu_75::MeasureUnitImpl", ptr %0, i32 0, i32 0
  %1 = load i32, ptr %complexity2, align 8
  store i32 %1, ptr %complexity, align 8
  %singleUnits = getelementptr inbounds %"class.icu_75::MeasureUnitImpl", ptr %this1, i32 0, i32 1
  %2 = load ptr, ptr %other.addr, align 8
  %singleUnits3 = getelementptr inbounds %"class.icu_75::MeasureUnitImpl", ptr %2, i32 0, i32 1
  call void @_ZN6icu_7516MaybeStackVectorINS_14SingleUnitImplELi8EEC2EOS2_(ptr noundef nonnull align 8 dereferenceable(88) %singleUnits, ptr noundef nonnull align 8 dereferenceable(88) %singleUnits3) #8
  %identifier = getelementptr inbounds %"class.icu_75::MeasureUnitImpl", ptr %this1, i32 0, i32 2
  %3 = load ptr, ptr %other.addr, align 8
  %identifier4 = getelementptr inbounds %"class.icu_75::MeasureUnitImpl", ptr %3, i32 0, i32 2
  call void @_ZN6icu_7510CharStringC1EOS0_(ptr noundef nonnull align 8 dereferenceable(60) %identifier, ptr noundef nonnull align 8 dereferenceable(60) %identifier4) #8
  ret void
}

; Function Attrs: mustprogress uwtable
define linkonce_odr { ptr, i32 } @_ZNK6icu_7510CharString13toStringPieceEv(ptr noundef nonnull align 8 dereferenceable(60) %this) #1 comdat align 2 {
entry:
  %retval = alloca %"class.icu_75::StringPiece", align 8
  %this.addr = alloca ptr, align 8
  store ptr %this, ptr %this.addr, align 8
  %this1 = load ptr, ptr %this.addr, align 8
  %buffer = getelementptr inbounds %"class.icu_75::CharString", ptr %this1, i32 0, i32 0
  %call = call noundef ptr @_ZNK6icu_7515MaybeStackArrayIcLi40EE8getAliasEv(ptr noundef nonnull align 8 dereferenceable(53) %buffer)
  %len = getelementptr inbounds %"class.icu_75::CharString", ptr %this1, i32 0, i32 1
  %0 = load i32, ptr %len, align 8
  call void @_ZN6icu_7511StringPieceC2EPKci(ptr noundef nonnull align 8 dereferenceable(12) %retval, ptr noundef %call, i32 noundef %0)
  %1 = load { ptr, i32 }, ptr %retval, align 8
  ret { ptr, i32 } %1
}

; Function Attrs: mustprogress nounwind uwtable
define linkonce_odr void @_ZN6icu_757UObjectC2Ev(ptr noundef nonnull align 8 dereferenceable(8) %this) unnamed_addr #0 comdat align 2 {
entry:
  %this.addr = alloca ptr, align 8
  store ptr %this, ptr %this.addr, align 8
  %this1 = load ptr, ptr %this.addr, align 8
  store ptr getelementptr inbounds ({ [5 x ptr] }, ptr @_ZTVN6icu_757UObjectE, i32 0, i32 0, i32 2), ptr %this1, align 8
  ret void
}

; Function Attrs: mustprogress uwtable
define void @_ZN6icu_7511MeasureUnitC2EONS_15MeasureUnitImplE(ptr noundef nonnull align 8 dereferenceable(19) %this, ptr noundef nonnull align 8 dereferenceable(160) %impl) unnamed_addr #1 align 2 personality ptr @__gxx_personality_v0 {
entry:
  %this.addr = alloca ptr, align 8
  %impl.addr = alloca ptr, align 8
  %agg.tmp = alloca %"class.icu_75::StringPiece", align 8
  %exn.slot = alloca ptr, align 8
  %ehselector.slot = alloca i32, align 4
  %saved-rvalue = alloca ptr, align 8
  %cleanup.cond = alloca i1, align 1
  store ptr %this, ptr %this.addr, align 8
  store ptr %impl, ptr %impl.addr, align 8
  %this1 = load ptr, ptr %this.addr, align 8
  call void @_ZN6icu_757UObjectC2Ev(ptr noundef nonnull align 8 dereferenceable(8) %this1) #8
  store ptr getelementptr inbounds ({ [7 x ptr] }, ptr @_ZTVN6icu_7511MeasureUnitE, i32 0, i32 0, i32 2), ptr %this1, align 8
  %fImpl = getelementptr inbounds %"class.icu_75::MeasureUnit", ptr %this1, i32 0, i32 1
  store ptr null, ptr %fImpl, align 8
  %fSubTypeId = getelementptr inbounds %"class.icu_75::MeasureUnit", ptr %this1, i32 0, i32 2
  store i16 -1, ptr %fSubTypeId, align 8
  %fTypeId = getelementptr inbounds %"class.icu_75::MeasureUnit", ptr %this1, i32 0, i32 3
  store i8 -1, ptr %fTypeId, align 2
  %0 = load ptr, ptr %impl.addr, align 8
  %identifier = getelementptr inbounds %"class.icu_75::MeasureUnitImpl", ptr %0, i32 0, i32 2
  %call = invoke { ptr, i32 } @_ZNK6icu_7510CharString13toStringPieceEv(ptr noundef nonnull align 8 dereferenceable(60) %identifier)
          to label %invoke.cont unwind label %lpad

invoke.cont:                                      ; preds = %entry
  %1 = getelementptr inbounds { ptr, i32 }, ptr %agg.tmp, i32 0, i32 0
  %2 = extractvalue { ptr, i32 } %call, 0
  store ptr %2, ptr %1, align 8
  %3 = getelementptr inbounds { ptr, i32 }, ptr %agg.tmp, i32 0, i32 1
  %4 = extractvalue { ptr, i32 } %call, 1
  store i32 %4, ptr %3, align 8
  %5 = getelementptr inbounds { ptr, i32 }, ptr %agg.tmp, i32 0, i32 0
  %6 = load ptr, ptr %5, align 8
  %7 = getelementptr inbounds { ptr, i32 }, ptr %agg.tmp, i32 0, i32 1
  %8 = load i32, ptr %7, align 8
  %call3 = invoke noundef zeroext i1 @_ZN6icu_7511MeasureUnit13findBySubTypeENS_11StringPieceEPS0_(ptr %6, i32 %8, ptr noundef %this1)
          to label %invoke.cont2 unwind label %lpad

invoke.cont2:                                     ; preds = %invoke.cont
  br i1 %call3, label %if.end, label %if.then

if.then:                                          ; preds = %invoke.cont2
  %call4 = call noundef ptr @_ZN6icu_757UMemorynwEm(i64 noundef 160) #8
  %new.isnull = icmp eq ptr %call4, null
  store i1 false, ptr %cleanup.cond, align 1
  br i1 %new.isnull, label %new.cont, label %new.notnull

new.notnull:                                      ; preds = %if.then
  store ptr %call4, ptr %saved-rvalue, align 8
  store i1 true, ptr %cleanup.cond, align 1
  %9 = load ptr, ptr %impl.addr, align 8
  call void @_ZN6icu_7515MeasureUnitImplC2EOS0_(ptr noundef nonnull align 8 dereferenceable(160) %call4, ptr noundef nonnull align 8 dereferenceable(160) %9) #8
  br label %new.cont

new.cont:                                         ; preds = %new.notnull, %if.then
  %10 = phi ptr [ %call4, %new.notnull ], [ null, %if.then ]
  %fImpl5 = getelementptr inbounds %"class.icu_75::MeasureUnit", ptr %this1, i32 0, i32 1
  store ptr %10, ptr %fImpl5, align 8
  br label %if.end

lpad:                                             ; preds = %invoke.cont, %entry
  %11 = landingpad { ptr, i32 }
          cleanup
  %12 = extractvalue { ptr, i32 } %11, 0
  store ptr %12, ptr %exn.slot, align 8
  %13 = extractvalue { ptr, i32 } %11, 1
  store i32 %13, ptr %ehselector.slot, align 4
  call void @_ZN6icu_757UObjectD2Ev(ptr noundef nonnull align 8 dereferenceable(8) %this1) #8
  br label %eh.resume

if.end:                                           ; preds = %new.cont, %invoke.cont2
  ret void

eh.resume:                                        ; preds = %lpad
  %exn = load ptr, ptr %exn.slot, align 8
  %sel = load i32, ptr %ehselector.slot, align 4
  %lpad.val = insertvalue { ptr, i32 } poison, ptr %exn, 0
  %lpad.val6 = insertvalue { ptr, i32 } %lpad.val, i32 %sel, 1
  resume { ptr, i32 } %lpad.val6
}