; Function Attrs: mustprogress uwtable
define void @_ZN6icu_7511MeasureUnitC2EONS_15MeasureUnitImplE(ptr noundef nonnull align 8 dereferenceable(19) %this, ptr noundef nonnull align 8 dereferenceable(160) %impl) unnamed_addr #1 align 2 personality ptr @__gxx_personality_v0 {
invoke.cont:
  store ptr getelementptr inbounds ({ [7 x ptr] }, ptr @_ZTVN6icu_7511MeasureUnitE, i64 0, i32 0, i64 2), ptr %this, align 8
  %fImpl = getelementptr inbounds i8, ptr %this, i64 8
  store ptr null, ptr %fImpl, align 8
  %fSubTypeId = getelementptr inbounds i8, ptr %this, i64 16
  store i16 -1, ptr %fSubTypeId, align 8
  %fTypeId = getelementptr inbounds i8, ptr %this, i64 18
  store i8 -1, ptr %fTypeId, align 2
  %identifier = getelementptr inbounds i8, ptr %impl, i64 96
  %0 = load ptr, ptr %identifier, align 8
  %len.i = getelementptr inbounds i8, ptr %impl, i64 152
  %1 = load i32, ptr %len.i, align 8
  %call3 = invoke noundef zeroext i1 @_ZN6icu_7511MeasureUnit13findBySubTypeENS_11StringPieceEPS0_(ptr %0, i32 %1, ptr noundef nonnull %this)
          to label %invoke.cont2 unwind label %lpad

invoke.cont2:                                     ; preds = %invoke.cont
  br i1 %call3, label %if.end, label %if.then

if.then:                                          ; preds = %invoke.cont2
  %call4 = tail call noundef ptr @_ZN6icu_757UMemorynwEm(i64 noundef 160) #17
  %new.isnull = icmp eq ptr %call4, null
  br i1 %new.isnull, label %new.cont, label %new.notnull

new.notnull:                                      ; preds = %if.then
  %2 = load i32, ptr %impl, align 8
  store i32 %2, ptr %call4, align 8
  %singleUnits.i = getelementptr inbounds i8, ptr %call4, i64 8
  %singleUnits3.i = getelementptr inbounds i8, ptr %impl, i64 8
  %3 = load i32, ptr %singleUnits3.i, align 8
  store i32 %3, ptr %singleUnits.i, align 8
  %fPool.i.i.i = getelementptr inbounds i8, ptr %call4, i64 16
  %fPool3.i.i.i = getelementptr inbounds i8, ptr %impl, i64 16
  %4 = load ptr, ptr %fPool3.i.i.i, align 8
  store ptr %4, ptr %fPool.i.i.i, align 8
  %capacity.i.i.i.i = getelementptr inbounds i8, ptr %call4, i64 24
  %capacity3.i.i.i.i = getelementptr inbounds i8, ptr %impl, i64 24
  %5 = load i32, ptr %capacity3.i.i.i.i, align 8
  store i32 %5, ptr %capacity.i.i.i.i, align 8
  %needToRelease.i.i.i.i = getelementptr inbounds i8, ptr %call4, i64 28
  %needToRelease4.i.i.i.i = getelementptr inbounds i8, ptr %impl, i64 28
  %6 = load i8, ptr %needToRelease4.i.i.i.i, align 4
  store i8 %6, ptr %needToRelease.i.i.i.i, align 4
  %7 = load ptr, ptr %fPool3.i.i.i, align 8
  %stackArray.i.i.i.i = getelementptr inbounds i8, ptr %impl, i64 32
  %cmp.i.i.i.i = icmp eq ptr %7, %stackArray.i.i.i.i
  br i1 %cmp.i.i.i.i, label %if.then.i.i.i.i, label %if.else.i.i.i.i

if.then.i.i.i.i:                                  ; preds = %new.notnull
  %stackArray6.i.i.i.i = getelementptr inbounds i8, ptr %call4, i64 32
  store ptr %stackArray6.i.i.i.i, ptr %fPool.i.i.i, align 8
  %8 = load i32, ptr %capacity3.i.i.i.i, align 8
  %conv.i.i.i.i = sext i32 %8 to i64
  %mul.i.i.i.i = shl nsw i64 %conv.i.i.i.i, 3
  tail call void @llvm.memcpy.p0.p0.i64(ptr nonnull align 8 %stackArray6.i.i.i.i, ptr nonnull align 8 %7, i64 %mul.i.i.i.i, i1 false)
  br label %_ZN6icu_7515MeasureUnitImplC2EOS0_.exit

if.else.i.i.i.i:                                  ; preds = %new.notnull
  store ptr %stackArray.i.i.i.i, ptr %fPool3.i.i.i, align 8
  store i32 8, ptr %capacity3.i.i.i.i, align 8
  store i8 0, ptr %needToRelease4.i.i.i.i, align 4
  br label %_ZN6icu_7515MeasureUnitImplC2EOS0_.exit

_ZN6icu_7515MeasureUnitImplC2EOS0_.exit:          ; preds = %if.then.i.i.i.i, %if.else.i.i.i.i
  store i32 0, ptr %singleUnits3.i, align 8
  %identifier.i = getelementptr inbounds i8, ptr %call4, i64 96
  tail call void @_ZN6icu_7510CharStringC1EOS0_(ptr noundef nonnull align 8 dereferenceable(60) %identifier.i, ptr noundef nonnull align 8 dereferenceable(60) %identifier) #17
  br label %new.cont

new.cont:                                         ; preds = %_ZN6icu_7515MeasureUnitImplC2EOS0_.exit, %if.then
  store ptr %call4, ptr %fImpl, align 8
  br label %if.end

lpad:                                             ; preds = %invoke.cont
  %9 = landingpad { ptr, i32 }
          cleanup
  tail call void @_ZN6icu_757UObjectD2Ev(ptr noundef nonnull align 8 dereferenceable(8) %this) #17
  resume { ptr, i32 } %9

if.end:                                           ; preds = %new.cont, %invoke.cont2
  ret void
}